Certificate:
    Data:
        Version: 3 (0x2)
        Serial Number: 17240662541416089549 (0xef43233c897d47cd)
    Signature Algorithm: sha1WithRSAEncryption
        Issuer: C=fr, ST=Some-State, O=Internet Widgits Pty Ltd
        Validity
            Not Before: Jun  3 08:27:48 2014 GMT
            Not After : Feb 27 08:27:48 2017 GMT
        Subject: C=fr, ST=Some-State, O=Internet Widgits Pty Ltd
        Subject Public Key Info:
            Public Key Algorithm: rsaEncryption
                Public-Key: (2048 bit)
                Modulus:
                    00:9e:34:38:5d:2d:df:52:cd:b5:6a:de:4f:81:e9:
                    ed:5a:87:41:ae:d8:ec:18:4a:df:52:6c:76:e4:b8:
                    8e:10:db:85:5c:30:31:24:08:3b:80:1c:e4:a0:f7:
                    92:d6:6a:b2:df:05:da:29:00:90:95:77:37:31:8e:
                    cd:9e:ce:b6:9d:e3:c0:0b:0c:2d:6d:f2:ef:2f:3c:
                    7e:82:9a:3c:d7:41:bd:26:89:8c:8e:9f:ec:51:40:
                    80:97:b7:31:8b:22:77:83:8a:03:b8:98:54:94:a5:
                    3d:cb:a1:9e:d3:d5:88:f0:9a:52:e1:db:2b:ae:da:
                    6b:a4:0e:56:80:25:d5:c4:34:fe:4e:81:44:b5:b2:
                    eb:2e:73:25:2a:ce:f3:d8:91:34:b0:ca:e3:ec:55:
                    5f:cb:14:65:e3:74:f6:8e:de:c1:14:2a:ce:e5:2b:
                    94:ae:14:f3:d3:4e:46:d6:dd:99:76:64:85:7d:cc:
                    aa:5a:13:7d:84:85:45:26:1a:b4:c7:7a:56:b6:e4:
                    21:58:aa:b1:df:5a:b9:f9:6f:c5:11:ee:93:00:1f:
                    d9:30:55:6a:a5:b5:fc:ac:00:16:c6:5f:dd:3a:48:
                    7e:03:7b:60:6c:85:12:f6:b2:d4:b7:78:5f:81:98:
                    0c:85:9e:1c:f7:2c:ff:e8:23:2d:cc:af:4c:1a:6b:
                    93:f1
                Exponent: 65537 (0x10001)
        X509v3 extensions:
            X509v3 Subject Key Identifier: 
                E8:88:CF:C6:7A:EB:57:1F:9C:EB:7B:B8:A0:87:60:24:C9:61:DD:57
            X509v3 Authority Key Identifier: 
                keyid:E8:88:CF:C6:7A:EB:57:1F:9C:EB:7B:B8:A0:87:60:24:C9:61:DD:57

            X509v3 Basic Constraints: 
                CA:TRUE
    Signature Algorithm: sha1WithRSAEncryption
         26:d5:01:c6:3a:d6:e7:e8:77:98:63:4c:94:e1:8a:3c:ac:a8:
         f3:5e:8e:60:e3:4b:9e:6b:88:2d:42:9d:53:ef:96:c0:36:73:
         e3:6b:ad:59:64:14:10:1a:ef:1a:e9:10:b2:5e:ec:c9:cb:47:
         9a:0d:58:f8:d7:a2:8e:c9:22:d2:26:00:4b:1c:f9:6f:19:a5:
         4a:a7:ff:8e:1e:ad:92:4c:ef:eb:ac:70:0a:d2:0d:3e:58:cc:
         4f:f6:c4:1f:2f:50:18:df:ec:15:71:b6:5e:ff:c8:35:b4:b8:
         17:25:67:8e:31:d5:2b:45:d0:39:1e:f1:b0:62:ea:b1:22:6e:
         ee:2c:58:6a:5b:98:b9:74:ba:11:a2:74:2f:bd:4d:f1:34:73:
         59:b9:5a:d4:f8:30:71:af:28:49:7a:be:f5:a3:3a:31:45:4b:
         f5:1d:d9:85:bb:a9:89:2a:8d:d8:ab:07:41:63:52:6a:bd:25:
         99:4b:d2:35:43:4b:a9:b5:d2:2d:ed:a5:f7:f0:3b:0b:8a:39:
         3f:6d:3e:51:b8:6f:bd:65:74:b6:51:69:9e:ec:f5:34:59:fc:
         ec:1e:f7:67:7a:e0:1d:81:89:fb:ee:7d:39:16:e2:c7:79:44:
         4d:44:51:59:0a:dd:88:57:61:be:fa:7d:07:50:20:a2:b5:4b:
         3e:bd:ed:c8
-----BEGIN CERTIFICATE-----
MIIDXTCCAkWgAwIBAgIJAO9DIzyJfUfNMA0GCSqGSIb3DQEBBQUAMEUxCzAJBgNV
BAYTAmZyMRMwEQYDVQQIDApTb21lLVN0YXRlMSEwHwYDVQQKDBhJbnRlcm5ldCBX
aWRnaXRzIFB0eSBMdGQwHhcNMTQwNjAzMDgyNzQ4WhcNMTcwMjI3MDgyNzQ4WjBF
MQswCQYDVQQGEwJmcjETMBEGA1UECAwKU29tZS1TdGF0ZTEhMB8GA1UECgwYSW50
ZXJuZXQgV2lkZ2l0cyBQdHkgTHRkMIIBIjANBgkqhkiG9w0BAQEFAAOCAQ8AMIIB
CgKCAQEAnjQ4XS3fUs21at5PgentWodBrtjsGErfUmx25LiOENuFXDAxJAg7gBzk
oPeS1mqy3wXaKQCQlXc3MY7Nns62nePACwwtbfLvLzx+gpo810G9JomMjp/sUUCA
l7cxiyJ3g4oDuJhUlKU9y6Ge09WI8JpS4dsrrtprpA5WgCXVxDT+ToFEtbLrLnMl
Ks7z2JE0sMrj7FVfyxRl43T2jt7BFCrO5SuUrhTz005G1t2ZdmSFfcyqWhN9hIVF
Jhq0x3pWtuQhWKqx31q5+W/FEe6TAB/ZMFVqpbX8rAAWxl/dOkh+A3tgbIUS9rLU
t3hfgZgMhZ4c9yz/6CMtzK9MGmuT8QIDAQABo1AwTjAdBgNVHQ4EFgQU6IjPxnrr
Vx+c63u4oIdgJMlh3VcwHwYDVR0jBBgwFoAU6IjPxnrrVx+c63u4oIdgJMlh3Vcw
DAYDVR0TBAUwAwEB/zANBgkqhkiG9w0BAQUFAAOCAQEAJtUBxjrW5+h3mGNMlOGK
PKyo816OYONLnmuILUKdU++WwDZz42utWWQUEBrvGukQsl7syctHmg1Y+Neijski
0iYASxz5bxmlSqf/jh6tkkzv66xwCtINPljMT/bEHy9QGN/sFXG2Xv/INbS4FyVn
jjHVK0XQOR7xsGLqsSJu7ixYaluYuXS6EaJ0L71N8TRzWbla1Pgwca8oSXq+9aM6
MUVL9R3ZhbupiSqN2KsHQWNSar0lmUvSNUNLqbXSLe2l9/A7C4o5P20+UbhvvWV0
tlFpnuz1NFn87B73Z3rgHYGJ++59ORbix3lETURRWQrdiFdhvvp9B1AgorVLPr3t
yA==
-----END CERTIFICATE-----
